
os.elf:     file format elf32-littlearm


Disassembly of section .text:

82000000 <_start>:
82000000:	e59fd018 	ldr	sp, [pc, #24]	; 82000020 <GET32+0x8>
82000004:	eb000006 	bl	82000024 <main>
82000008:	eaffffff 	b	8200000c <hang>

8200000c <hang>:
8200000c:	eafffffe 	b	8200000c <hang>

82000010 <PUT32>:
82000010:	e5801000 	str	r1, [r0]
82000014:	e12fff1e 	bx	lr

82000018 <GET32>:
82000018:	e5900000 	ldr	r0, [r0]
8200001c:	e12fff1e 	bx	lr
82000020:	820016e0 	andhi	r1, r0, #224, 12	; 0xe000000

82000024 <main>:
82000024:	e92d4070 	push	{r4, r5, r6, lr}
82000028:	e30066b0 	movw	r6, #1712	; 0x6b0
8200002c:	e30056b8 	movw	r5, #1720	; 0x6b8
82000030:	e3486200 	movt	r6, #33280	; 0x8200
82000034:	e3485200 	movt	r5, #33280	; 0x8200
82000038:	e3a04000 	mov	r4, #0
8200003c:	e1a01004 	mov	r1, r4
82000040:	e1a00006 	mov	r0, r6
82000044:	e2844001 	add	r4, r4, #1
82000048:	eb000009 	bl	82000074 <PRINT>
8200004c:	e354000a 	cmp	r4, #10
82000050:	1afffff9 	bne	8200003c <main+0x18>
82000054:	e3a04061 	mov	r4, #97	; 0x61
82000058:	e1a01004 	mov	r1, r4
8200005c:	e1a00005 	mov	r0, r5
82000060:	e2844001 	add	r4, r4, #1
82000064:	eb000002 	bl	82000074 <PRINT>
82000068:	e354007b 	cmp	r4, #123	; 0x7b
8200006c:	1afffff9 	bne	82000058 <main+0x34>
82000070:	eafffff0 	b	82000038 <main+0x14>

82000074 <PRINT>:
82000074:	e92d000f 	push	{r0, r1, r2, r3}
82000078:	e92d4030 	push	{r4, r5, lr}
8200007c:	e24dd02c 	sub	sp, sp, #44	; 0x2c
82000080:	e28d303c 	add	r3, sp, #60	; 0x3c
82000084:	e59d4038 	ldr	r4, [sp, #56]	; 0x38
82000088:	e58d3004 	str	r3, [sp, #4]
8200008c:	e5d40000 	ldrb	r0, [r4]
82000090:	e3500000 	cmp	r0, #0
82000094:	0a000019 	beq	82000100 <PRINT+0x8c>
82000098:	e30056bc 	movw	r5, #1724	; 0x6bc
8200009c:	e3485200 	movt	r5, #33280	; 0x8200
820000a0:	ea00000f 	b	820000e4 <PRINT+0x70>
820000a4:	e5d43001 	ldrb	r3, [r4, #1]
820000a8:	e2844001 	add	r4, r4, #1
820000ac:	e3530073 	cmp	r3, #115	; 0x73
820000b0:	0a000016 	beq	82000110 <PRINT+0x9c>
820000b4:	e3530064 	cmp	r3, #100	; 0x64
820000b8:	0a000027 	beq	8200015c <PRINT+0xe8>
820000bc:	e3530063 	cmp	r3, #99	; 0x63
820000c0:	0a00002e 	beq	82000180 <PRINT+0x10c>
820000c4:	e3530066 	cmp	r3, #102	; 0x66
820000c8:	0a000016 	beq	82000128 <PRINT+0xb4>
820000cc:	e1a00005 	mov	r0, r5
820000d0:	eb0000b9 	bl	820003bc <uart_puts>
820000d4:	e5d40001 	ldrb	r0, [r4, #1]
820000d8:	e2844001 	add	r4, r4, #1
820000dc:	e3500000 	cmp	r0, #0
820000e0:	0a000006 	beq	82000100 <PRINT+0x8c>
820000e4:	e3500025 	cmp	r0, #37	; 0x25
820000e8:	0affffed 	beq	820000a4 <PRINT+0x30>
820000ec:	eb0000a3 	bl	82000380 <uart_putc>
820000f0:	e5d40001 	ldrb	r0, [r4, #1]
820000f4:	e2844001 	add	r4, r4, #1
820000f8:	e3500000 	cmp	r0, #0
820000fc:	1afffff8 	bne	820000e4 <PRINT+0x70>
82000100:	e28dd02c 	add	sp, sp, #44	; 0x2c
82000104:	e8bd4030 	pop	{r4, r5, lr}
82000108:	e28dd010 	add	sp, sp, #16
8200010c:	e12fff1e 	bx	lr
82000110:	e59d3004 	ldr	r3, [sp, #4]
82000114:	e2832004 	add	r2, r3, #4
82000118:	e58d2004 	str	r2, [sp, #4]
8200011c:	e5930000 	ldr	r0, [r3]
82000120:	eb0000a5 	bl	820003bc <uart_puts>
82000124:	eaffffea 	b	820000d4 <PRINT+0x60>
82000128:	e59d3004 	ldr	r3, [sp, #4]
8200012c:	e28d0008 	add	r0, sp, #8
82000130:	e3a01006 	mov	r1, #6
82000134:	e2833007 	add	r3, r3, #7
82000138:	e3c33007 	bic	r3, r3, #7
8200013c:	e2832008 	add	r2, r3, #8
82000140:	e58d2004 	str	r2, [sp, #4]
82000144:	ed930b00 	vldr	d0, [r3]
82000148:	eeb70bc0 	vcvt.f32.f64	s0, d0
8200014c:	eb00011e 	bl	820005cc <ftoa>
82000150:	e28d0008 	add	r0, sp, #8
82000154:	eb000098 	bl	820003bc <uart_puts>
82000158:	eaffffdd 	b	820000d4 <PRINT+0x60>
8200015c:	e59d3004 	ldr	r3, [sp, #4]
82000160:	e28d1008 	add	r1, sp, #8
82000164:	e2832004 	add	r2, r3, #4
82000168:	e58d2004 	str	r2, [sp, #4]
8200016c:	e5930000 	ldr	r0, [r3]
82000170:	eb0000dc 	bl	820004e8 <uart_itoa>
82000174:	e28d0008 	add	r0, sp, #8
82000178:	eb00008f 	bl	820003bc <uart_puts>
8200017c:	eaffffd4 	b	820000d4 <PRINT+0x60>
82000180:	e59d3004 	ldr	r3, [sp, #4]
82000184:	e2832004 	add	r2, r3, #4
82000188:	e58d2004 	str	r2, [sp, #4]
8200018c:	e5d30000 	ldrb	r0, [r3]
82000190:	eb00007a 	bl	82000380 <uart_putc>
82000194:	eaffffce 	b	820000d4 <PRINT+0x60>

82000198 <READ>:
82000198:	e92d000f 	push	{r0, r1, r2, r3}
8200019c:	e3a01020 	mov	r1, #32
820001a0:	e92d4010 	push	{r4, lr}
820001a4:	e24dd028 	sub	sp, sp, #40	; 0x28
820001a8:	e28d0008 	add	r0, sp, #8
820001ac:	e28d3034 	add	r3, sp, #52	; 0x34
820001b0:	e59d4030 	ldr	r4, [sp, #48]	; 0x30
820001b4:	e58d3004 	str	r3, [sp, #4]
820001b8:	eb00008c 	bl	820003f0 <uart_gets_input>
820001bc:	e5d43000 	ldrb	r3, [r4]
820001c0:	e3530025 	cmp	r3, #37	; 0x25
820001c4:	0a000003 	beq	820001d8 <READ+0x40>
820001c8:	e28dd028 	add	sp, sp, #40	; 0x28
820001cc:	e8bd4010 	pop	{r4, lr}
820001d0:	e28dd010 	add	sp, sp, #16
820001d4:	e12fff1e 	bx	lr
820001d8:	e5d43001 	ldrb	r3, [r4, #1]
820001dc:	e3530073 	cmp	r3, #115	; 0x73
820001e0:	0a000010 	beq	82000228 <READ+0x90>
820001e4:	e3530064 	cmp	r3, #100	; 0x64
820001e8:	0a000014 	beq	82000240 <READ+0xa8>
820001ec:	e3530066 	cmp	r3, #102	; 0x66
820001f0:	0a000006 	beq	82000210 <READ+0x78>
820001f4:	e30006bc 	movw	r0, #1724	; 0x6bc
820001f8:	e3480200 	movt	r0, #33280	; 0x8200
820001fc:	eb00006e 	bl	820003bc <uart_puts>
82000200:	e28dd028 	add	sp, sp, #40	; 0x28
82000204:	e8bd4010 	pop	{r4, lr}
82000208:	e28dd010 	add	sp, sp, #16
8200020c:	e12fff1e 	bx	lr
82000210:	e59d3004 	ldr	r3, [sp, #4]
82000214:	e28d0008 	add	r0, sp, #8
82000218:	e5934000 	ldr	r4, [r3]
8200021c:	eb0000b9 	bl	82000508 <uart_atof>
82000220:	ed840a00 	vstr	s0, [r4]
82000224:	eaffffe7 	b	820001c8 <READ+0x30>
82000228:	e59d3004 	ldr	r3, [sp, #4]
8200022c:	e28d1008 	add	r1, sp, #8
82000230:	e3a02020 	mov	r2, #32
82000234:	e5930000 	ldr	r0, [r3]
82000238:	eb000006 	bl	82000258 <my_strncpy>
8200023c:	eaffffe1 	b	820001c8 <READ+0x30>
82000240:	e59d3004 	ldr	r3, [sp, #4]
82000244:	e28d0008 	add	r0, sp, #8
82000248:	e5934000 	ldr	r4, [r3]
8200024c:	eb00008c 	bl	82000484 <uart_atoi>
82000250:	e5840000 	str	r0, [r4]
82000254:	eaffffdb 	b	820001c8 <READ+0x30>

82000258 <my_strncpy>:
82000258:	e92d4030 	push	{r4, r5, lr}
8200025c:	e2525000 	subs	r5, r2, #0
82000260:	08bd8030 	popeq	{r4, r5, pc}
82000264:	e2403001 	sub	r3, r0, #1
82000268:	e241e001 	sub	lr, r1, #1
8200026c:	e0832005 	add	r2, r3, r5
82000270:	e2604001 	rsb	r4, r0, #1
82000274:	ea000002 	b	82000284 <my_strncpy+0x2c>
82000278:	e5e3c001 	strb	ip, [r3, #1]!
8200027c:	e1530002 	cmp	r3, r2
82000280:	08bd8030 	popeq	{r4, r5, pc}
82000284:	e5fec001 	ldrb	ip, [lr, #1]!
82000288:	e0841003 	add	r1, r4, r3
8200028c:	e35c0000 	cmp	ip, #0
82000290:	1afffff8 	bne	82000278 <my_strncpy+0x20>
82000294:	e1550001 	cmp	r5, r1
82000298:	98bd8030 	popls	{r4, r5, pc}
8200029c:	e2413001 	sub	r3, r1, #1
820002a0:	e0803003 	add	r3, r0, r3
820002a4:	e5e3c001 	strb	ip, [r3, #1]!
820002a8:	e1530002 	cmp	r3, r2
820002ac:	1afffffc 	bne	820002a4 <my_strncpy+0x4c>
820002b0:	e8bd8030 	pop	{r4, r5, pc}

820002b4 <uart_itoa.part.0>:
820002b4:	e3500000 	cmp	r0, #0
820002b8:	e241c001 	sub	ip, r1, #1
820002bc:	e92d43f0 	push	{r4, r5, r6, r7, r8, r9, lr}
820002c0:	b2600000 	rsblt	r0, r0, #0
820002c4:	e30c7ccd 	movw	r7, #52429	; 0xcccd
820002c8:	e34c7ccc 	movt	r7, #52428	; 0xcccc
820002cc:	b3a09001 	movlt	r9, #1
820002d0:	a3a09000 	movge	r9, #0
820002d4:	e1a0600c 	mov	r6, ip
820002d8:	e3a05000 	mov	r5, #0
820002dc:	e3a0800a 	mov	r8, #10
820002e0:	e0823097 	umull	r3, r2, r7, r0
820002e4:	e3500009 	cmp	r0, #9
820002e8:	e1a03005 	mov	r3, r5
820002ec:	e2855001 	add	r5, r5, #1
820002f0:	e1a0e000 	mov	lr, r0
820002f4:	c3a0e001 	movgt	lr, #1
820002f8:	d3a0e000 	movle	lr, #0
820002fc:	e355000d 	cmp	r5, #13
82000300:	e1a021a2 	lsr	r2, r2, #3
82000304:	c3a0e000 	movgt	lr, #0
82000308:	e35e0000 	cmp	lr, #0
8200030c:	e0640298 	mls	r4, r8, r2, r0
82000310:	e1a00002 	mov	r0, r2
82000314:	e2842030 	add	r2, r4, #48	; 0x30
82000318:	e5e62001 	strb	r2, [r6, #1]!
8200031c:	1affffef 	bne	820002e0 <uart_itoa.part.0+0x2c>
82000320:	e3590000 	cmp	r9, #0
82000324:	0a000011 	beq	82000370 <uart_itoa.part.0+0xbc>
82000328:	e0812003 	add	r2, r1, r3
8200032c:	e3a0302d 	mov	r3, #45	; 0x2d
82000330:	e7c13005 	strb	r3, [r1, r5]
82000334:	e1a03005 	mov	r3, r5
82000338:	e5c2e002 	strb	lr, [r2, #2]
8200033c:	e2833001 	add	r3, r3, #1
82000340:	e0813003 	add	r3, r1, r3
82000344:	e28c2002 	add	r2, ip, #2
82000348:	e2430002 	sub	r0, r3, #2
8200034c:	e5fce001 	ldrb	lr, [ip, #1]!
82000350:	e0400001 	sub	r0, r0, r1
82000354:	e5734001 	ldrb	r4, [r3, #-1]!
82000358:	e0422001 	sub	r2, r2, r1
8200035c:	e1500002 	cmp	r0, r2
82000360:	e5cc4000 	strb	r4, [ip]
82000364:	e5c3e000 	strb	lr, [r3]
82000368:	cafffff5 	bgt	82000344 <uart_itoa.part.0+0x90>
8200036c:	e8bd83f0 	pop	{r4, r5, r6, r7, r8, r9, pc}
82000370:	e3530000 	cmp	r3, #0
82000374:	e7c19005 	strb	r9, [r1, r5]
82000378:	1affffef 	bne	8200033c <uart_itoa.part.0+0x88>
8200037c:	e8bd83f0 	pop	{r4, r5, r6, r7, r8, r9, pc}

82000380 <uart_putc>:
82000380:	e3a02a09 	mov	r2, #36864	; 0x9000
82000384:	e34424e0 	movt	r2, #17632	; 0x44e0
82000388:	e5923014 	ldr	r3, [r2, #20]
8200038c:	e3130020 	tst	r3, #32
82000390:	0afffffc 	beq	82000388 <uart_putc+0x8>
82000394:	e5820000 	str	r0, [r2]
82000398:	e12fff1e 	bx	lr

8200039c <uart_getc>:
8200039c:	e3a02a09 	mov	r2, #36864	; 0x9000
820003a0:	e34424e0 	movt	r2, #17632	; 0x44e0
820003a4:	e5923014 	ldr	r3, [r2, #20]
820003a8:	e3130001 	tst	r3, #1
820003ac:	0afffffc 	beq	820003a4 <uart_getc+0x8>
820003b0:	e5920000 	ldr	r0, [r2]
820003b4:	e6ef0070 	uxtb	r0, r0
820003b8:	e12fff1e 	bx	lr

820003bc <uart_puts>:
820003bc:	e5d01000 	ldrb	r1, [r0]
820003c0:	e3510000 	cmp	r1, #0
820003c4:	012fff1e 	bxeq	lr
820003c8:	e3a02a09 	mov	r2, #36864	; 0x9000
820003cc:	e34424e0 	movt	r2, #17632	; 0x44e0
820003d0:	e5923014 	ldr	r3, [r2, #20]
820003d4:	e3130020 	tst	r3, #32
820003d8:	0afffffc 	beq	820003d0 <uart_puts+0x14>
820003dc:	e5821000 	str	r1, [r2]
820003e0:	e5f01001 	ldrb	r1, [r0, #1]!
820003e4:	e3510000 	cmp	r1, #0
820003e8:	1afffff8 	bne	820003d0 <uart_puts+0x14>
820003ec:	e12fff1e 	bx	lr

820003f0 <uart_gets_input>:
820003f0:	e92d4010 	push	{r4, lr}
820003f4:	e2414001 	sub	r4, r1, #1
820003f8:	e3540000 	cmp	r4, #0
820003fc:	da000014 	ble	82000454 <uart_gets_input+0x64>
82000400:	e3a03a09 	mov	r3, #36864	; 0x9000
82000404:	e240e001 	sub	lr, r0, #1
82000408:	e34434e0 	movt	r3, #17632	; 0x44e0
8200040c:	e3a0c000 	mov	ip, #0
82000410:	e5932014 	ldr	r2, [r3, #20]
82000414:	e3120001 	tst	r2, #1
82000418:	0afffffc 	beq	82000410 <uart_gets_input+0x20>
8200041c:	e5931000 	ldr	r1, [r3]
82000420:	e6ef1071 	uxtb	r1, r1
82000424:	e351000d 	cmp	r1, #13
82000428:	1351000a 	cmpne	r1, #10
8200042c:	0a00000b 	beq	82000460 <uart_gets_input+0x70>
82000430:	e5932014 	ldr	r2, [r3, #20]
82000434:	e3120020 	tst	r2, #32
82000438:	0afffffc 	beq	82000430 <uart_gets_input+0x40>
8200043c:	e28cc001 	add	ip, ip, #1
82000440:	e5831000 	str	r1, [r3]
82000444:	e15c0004 	cmp	ip, r4
82000448:	e5ee1001 	strb	r1, [lr, #1]!
8200044c:	1affffef 	bne	82000410 <uart_gets_input+0x20>
82000450:	e080000c 	add	r0, r0, ip
82000454:	e3a03000 	mov	r3, #0
82000458:	e5c03000 	strb	r3, [r0]
8200045c:	e8bd8010 	pop	{r4, pc}
82000460:	e3a02a09 	mov	r2, #36864	; 0x9000
82000464:	e34424e0 	movt	r2, #17632	; 0x44e0
82000468:	e5923014 	ldr	r3, [r2, #20]
8200046c:	e3130020 	tst	r3, #32
82000470:	0afffffc 	beq	82000468 <uart_gets_input+0x78>
82000474:	e3a0300a 	mov	r3, #10
82000478:	e080000c 	add	r0, r0, ip
8200047c:	e5823000 	str	r3, [r2]
82000480:	eafffff3 	b	82000454 <uart_gets_input+0x64>

82000484 <uart_atoi>:
82000484:	e52de004 	push	{lr}		; (str lr, [sp, #-4]!)
82000488:	e5d01000 	ldrb	r1, [r0]
8200048c:	e351002d 	cmp	r1, #45	; 0x2d
82000490:	13a02000 	movne	r2, #0
82000494:	13a0e001 	movne	lr, #1
82000498:	05d01001 	ldrbeq	r1, [r0, #1]
8200049c:	03a02001 	moveq	r2, #1
820004a0:	03e0e000 	mvneq	lr, #0
820004a4:	e2413030 	sub	r3, r1, #48	; 0x30
820004a8:	e6ef1073 	uxtb	r1, r3
820004ac:	e3510009 	cmp	r1, #9
820004b0:	90802002 	addls	r2, r0, r2
820004b4:	93a0c00a 	movls	ip, #10
820004b8:	93a00000 	movls	r0, #0
820004bc:	8a000007 	bhi	820004e0 <uart_atoi+0x5c>
820004c0:	e5f21001 	ldrb	r1, [r2, #1]!
820004c4:	e020309c 	mla	r0, ip, r0, r3
820004c8:	e2413030 	sub	r3, r1, #48	; 0x30
820004cc:	e6ef1073 	uxtb	r1, r3
820004d0:	e3510009 	cmp	r1, #9
820004d4:	9afffff9 	bls	820004c0 <uart_atoi+0x3c>
820004d8:	e000009e 	mul	r0, lr, r0
820004dc:	e49df004 	pop	{pc}		; (ldr pc, [sp], #4)
820004e0:	e3a00000 	mov	r0, #0
820004e4:	e49df004 	pop	{pc}		; (ldr pc, [sp], #4)

820004e8 <uart_itoa>:
820004e8:	e2503000 	subs	r3, r0, #0
820004ec:	e1a02001 	mov	r2, r1
820004f0:	0a000000 	beq	820004f8 <uart_itoa+0x10>
820004f4:	eaffff6e 	b	820002b4 <uart_itoa.part.0>
820004f8:	e3a01030 	mov	r1, #48	; 0x30
820004fc:	e5c23001 	strb	r3, [r2, #1]
82000500:	e5c21000 	strb	r1, [r2]
82000504:	e12fff1e 	bx	lr

82000508 <uart_atof>:
82000508:	e5d03000 	ldrb	r3, [r0]
8200050c:	e353002d 	cmp	r3, #45	; 0x2d
82000510:	0a000012 	beq	82000560 <uart_atof+0x58>
82000514:	e3530000 	cmp	r3, #0
82000518:	1353002e 	cmpne	r3, #46	; 0x2e
8200051c:	eeb70a00 	vmov.f32	s0, #112	; 0x3f800000  1.0
82000520:	0a000014 	beq	82000578 <uart_atof+0x70>
82000524:	ed9f7a26 	vldr	s14, [pc, #152]	; 820005c4 <uart_atof+0xbc>
82000528:	eef26a04 	vmov.f32	s13, #36	; 0x41200000  10.0
8200052c:	e2433030 	sub	r3, r3, #48	; 0x30
82000530:	ee073a90 	vmov	s15, r3
82000534:	e5f03001 	ldrb	r3, [r0, #1]!
82000538:	e3530000 	cmp	r3, #0
8200053c:	1353002e 	cmpne	r3, #46	; 0x2e
82000540:	eef87ae7 	vcvt.f32.s32	s15, s15
82000544:	ee477a26 	vmla.f32	s15, s14, s13
82000548:	eeb07a67 	vmov.f32	s14, s15
8200054c:	1afffff6 	bne	8200052c <uart_atof+0x24>
82000550:	e353002e 	cmp	r3, #46	; 0x2e
82000554:	0a00000a 	beq	82000584 <uart_atof+0x7c>
82000558:	ee270a00 	vmul.f32	s0, s14, s0
8200055c:	e12fff1e 	bx	lr
82000560:	e5d03001 	ldrb	r3, [r0, #1]
82000564:	eebf0a00 	vmov.f32	s0, #240	; 0xbf800000 -1.0
82000568:	e2800001 	add	r0, r0, #1
8200056c:	e3530000 	cmp	r3, #0
82000570:	1353002e 	cmpne	r3, #46	; 0x2e
82000574:	1affffea 	bne	82000524 <uart_atof+0x1c>
82000578:	e353002e 	cmp	r3, #46	; 0x2e
8200057c:	ed9f7a10 	vldr	s14, [pc, #64]	; 820005c4 <uart_atof+0xbc>
82000580:	1afffff4 	bne	82000558 <uart_atof+0x50>
82000584:	e5d03001 	ldrb	r3, [r0, #1]
82000588:	e2800001 	add	r0, r0, #1
8200058c:	e3530000 	cmp	r3, #0
82000590:	0afffff0 	beq	82000558 <uart_atof+0x50>
82000594:	eef76a00 	vmov.f32	s13, #112	; 0x3f800000  1.0
82000598:	ed9f6a0a 	vldr	s12, [pc, #40]	; 820005c8 <uart_atof+0xc0>
8200059c:	e2433030 	sub	r3, r3, #48	; 0x30
820005a0:	ee073a90 	vmov	s15, r3
820005a4:	e5f03001 	ldrb	r3, [r0, #1]!
820005a8:	e3530000 	cmp	r3, #0
820005ac:	ee666a86 	vmul.f32	s13, s13, s12
820005b0:	eef87ae7 	vcvt.f32.s32	s15, s15
820005b4:	ee077aa6 	vmla.f32	s14, s15, s13
820005b8:	1afffff7 	bne	8200059c <uart_atof+0x94>
820005bc:	ee270a00 	vmul.f32	s0, s14, s0
820005c0:	e12fff1e 	bx	lr
820005c4:	00000000 	andeq	r0, r0, r0
820005c8:	3dcccccd 	stclcc	12, cr12, [ip, #820]	; 0x334

820005cc <ftoa>:
820005cc:	eefd7ac0 	vcvt.s32.f32	s15, s0
820005d0:	e92d4070 	push	{r4, r5, r6, lr}
820005d4:	e1a04000 	mov	r4, r0
820005d8:	e1a05001 	mov	r5, r1
820005dc:	ee176a90 	vmov	r6, s15
820005e0:	e3560000 	cmp	r6, #0
820005e4:	0a00002b 	beq	82000698 <ftoa+0xcc>
820005e8:	e1a01000 	mov	r1, r0
820005ec:	ee170a90 	vmov	r0, s15
820005f0:	ebffff2f 	bl	820002b4 <uart_itoa.part.0>
820005f4:	e3550000 	cmp	r5, #0
820005f8:	d8bd8070 	pople	{r4, r5, r6, pc}
820005fc:	e5d43000 	ldrb	r3, [r4]
82000600:	e3530000 	cmp	r3, #0
82000604:	01a0c004 	moveq	ip, r4
82000608:	03a0e001 	moveq	lr, #1
8200060c:	0a000008 	beq	82000634 <ftoa+0x68>
82000610:	e2843001 	add	r3, r4, #1
82000614:	e3a02000 	mov	r2, #0
82000618:	e1a0c003 	mov	ip, r3
8200061c:	e4d31001 	ldrb	r1, [r3], #1
82000620:	e1a0e002 	mov	lr, r2
82000624:	e2822001 	add	r2, r2, #1
82000628:	e3510000 	cmp	r1, #0
8200062c:	1afffff9 	bne	82000618 <ftoa+0x4c>
82000630:	e28ee002 	add	lr, lr, #2
82000634:	ee076a90 	vmov	s15, r6
82000638:	e084000e 	add	r0, r4, lr
8200063c:	eef26a04 	vmov.f32	s13, #36	; 0x41200000  10.0
82000640:	e3a0302e 	mov	r3, #46	; 0x2e
82000644:	e1a02000 	mov	r2, r0
82000648:	e5cc3000 	strb	r3, [ip]
8200064c:	eef87ae7 	vcvt.f32.s32	s15, s15
82000650:	ee300a67 	vsub.f32	s0, s0, s15
82000654:	ee200a26 	vmul.f32	s0, s0, s13
82000658:	eefd7ac0 	vcvt.s32.f32	s15, s0
8200065c:	ee173a90 	vmov	r3, s15
82000660:	eeb87ae7 	vcvt.f32.s32	s14, s15
82000664:	ee300a47 	vsub.f32	s0, s0, s14
82000668:	e2833030 	add	r3, r3, #48	; 0x30
8200066c:	e4c23001 	strb	r3, [r2], #1
82000670:	e0423000 	sub	r3, r2, r0
82000674:	e1550003 	cmp	r5, r3
82000678:	cafffff5 	bgt	82000654 <ftoa+0x88>
8200067c:	e3550000 	cmp	r5, #0
82000680:	e3a03000 	mov	r3, #0
82000684:	c2455001 	subgt	r5, r5, #1
82000688:	d3a05000 	movle	r5, #0
8200068c:	e0800005 	add	r0, r0, r5
82000690:	e5c03001 	strb	r3, [r0, #1]
82000694:	e8bd8070 	pop	{r4, r5, r6, pc}
82000698:	e3510000 	cmp	r1, #0
8200069c:	e3a03030 	mov	r3, #48	; 0x30
820006a0:	e5c06001 	strb	r6, [r0, #1]
820006a4:	e5c03000 	strb	r3, [r0]
820006a8:	caffffd8 	bgt	82000610 <ftoa+0x44>
820006ac:	e8bd8070 	pop	{r4, r5, r6, pc}
820006b0:	0a206425 	beq	8281974c <_stack_top+0x7d974c>
820006b4:	00000000 	andeq	r0, r0, r0
820006b8:	000a6325 	andeq	r6, sl, r5, lsr #6
820006bc:	6b6e555b 	blvs	83b95c30 <_stack_top+0x1b55c30>
820006c0:	6e776f6e 	cdpvs	15, 7, cr6, cr7, cr14, {3}
820006c4:	726f6620 	rsbvc	r6, pc, #32, 12	; 0x2000000
820006c8:	2074616d 	rsbscs	r6, r4, sp, ror #2
820006cc:	63657073 	cmnvs	r5, #115	; 0x73
820006d0:	65696669 	strbvs	r6, [r9, #-1641]!	; 0xfffff997
820006d4:	00005d72 	andeq	r5, r0, r2, ror sp

820006d8 <UART0>:
820006d8:	44e09000 	strbtmi	r9, [r0], #0

Disassembly of section .bss:

820006e0 <__bss_start__>:
	...

Disassembly of section .ARM.attributes:

00000000 <.ARM.attributes>:
   0:	00003241 	andeq	r3, r0, r1, asr #4
   4:	61656100 	cmnvs	r5, r0, lsl #2
   8:	01006962 	tsteq	r0, r2, ror #18
   c:	00000028 	andeq	r0, r0, r8, lsr #32
  10:	412d3705 			; <UNDEFINED> instruction: 0x412d3705
  14:	070a0600 	streq	r0, [sl, -r0, lsl #12]
  18:	09010841 	stmdbeq	r1, {r0, r6, fp}
  1c:	0c030a02 			; <UNDEFINED> instruction: 0x0c030a02
  20:	14041201 	strne	r1, [r4], #-513	; 0xfffffdff
  24:	17011501 	strne	r1, [r1, -r1, lsl #10]
  28:	1a011803 	bne	4603c <_start-0x81fb9fc4>
  2c:	22011c01 	andcs	r1, r1, #256	; 0x100
  30:	Address 0x00000030 is out of bounds.


Disassembly of section .comment:

00000000 <.comment>:
   0:	3a434347 	bcc	10d0d24 <_start-0x80f2f2dc>
   4:	4e472820 	cdpmi	8, 4, cr2, cr7, cr0, {1}
   8:	72412055 	subvc	r2, r1, #85	; 0x55
   c:	6d45206d 	stclvs	0, cr2, [r5, #-436]	; 0xfffffe4c
  10:	64646562 	strbtvs	r6, [r4], #-1378	; 0xfffffa9e
  14:	54206465 	strtpl	r6, [r0], #-1125	; 0xfffffb9b
  18:	636c6f6f 	cmnvs	ip, #444	; 0x1bc
  1c:	6e696168 	powvsez	f6, f1, #0.0
  20:	2e303120 	rsfcssp	f3, f0, f0
  24:	30322d33 	eorscc	r2, r2, r3, lsr sp
  28:	312e3132 			; <UNDEFINED> instruction: 0x312e3132
  2c:	31202930 			; <UNDEFINED> instruction: 0x31202930
  30:	2e332e30 	mrccs	14, 1, r2, cr3, cr0, {1}
  34:	30322031 	eorscc	r2, r2, r1, lsr r0
  38:	38303132 	ldmdacc	r0!, {r1, r4, r5, r8, ip, sp}
  3c:	28203432 	stmdacs	r0!, {r1, r4, r5, sl, ip, sp}
  40:	656c6572 	strbvs	r6, [ip, #-1394]!	; 0xfffffa8e
  44:	29657361 	stmdbcs	r5!, {r0, r5, r6, r8, r9, ip, sp, lr}^
	...
